target datalayout = "e-m:e-p270:32:32-p271:32:32-p272:64:64-i64:64-i128:128-f80:128-n8:16:32:64-S128"
target triple = "x86_64-pc-linux-gnu"

@NBuffers = external global i32, align 4

; Function Attrs: nounwind uwtable
define dso_local i32 @SimpleLruAutotuneBuffers(i32 noundef %0, i32 noundef %1) #0 {
  %3 = alloca i32, align 4
  %4 = alloca i32, align 4
  store i32 %0, ptr %3, align 4
  store i32 %1, ptr %4, align 4
  %5 = load i32, ptr %4, align 4
  %6 = load i32, ptr %4, align 4
  %7 = srem i32 %6, 16
  %8 = sub i32 %5, %7
  %9 = load i32, ptr @NBuffers, align 4
  %10 = load i32, ptr %3, align 4
  %11 = sdiv i32 %9, %10
  %12 = load i32, ptr @NBuffers, align 4
  %13 = load i32, ptr %3, align 4
  %14 = sdiv i32 %12, %13
  %15 = srem i32 %14, 16
  %16 = sub i32 %11, %15
  %17 = icmp sgt i32 16, %16
  br i1 %17, label %18, label %19

18:                                               ; preds = %2
  br label %28

19:                                               ; preds = %2
  %20 = load i32, ptr @NBuffers, align 4
  %21 = load i32, ptr %3, align 4
  %22 = sdiv i32 %20, %21
  %23 = load i32, ptr @NBuffers, align 4
  %24 = load i32, ptr %3, align 4
  %25 = sdiv i32 %23, %24
  %26 = srem i32 %25, 16
  %27 = sub i32 %22, %26
  br label %28

28:                                               ; preds = %19, %18
  %29 = phi i32 [ 16, %18 ], [ %27, %19 ]
  %30 = icmp slt i32 %8, %29
  br i1 %30, label %31, label %36

31:                                               ; preds = %28
  %32 = load i32, ptr %4, align 4
  %33 = load i32, ptr %4, align 4
  %34 = srem i32 %33, 16
  %35 = sub i32 %32, %34
  br label %58

36:                                               ; preds = %28
  %37 = load i32, ptr @NBuffers, align 4
  %38 = load i32, ptr %3, align 4
  %39 = sdiv i32 %37, %38
  %40 = load i32, ptr @NBuffers, align 4
  %41 = load i32, ptr %3, align 4
  %42 = sdiv i32 %40, %41
  %43 = srem i32 %42, 16
  %44 = sub i32 %39, %43
  %45 = icmp sgt i32 16, %44
  br i1 %45, label %46, label %47

46:                                               ; preds = %36
  br label %56

47:                                               ; preds = %36
  %48 = load i32, ptr @NBuffers, align 4
  %49 = load i32, ptr %3, align 4
  %50 = sdiv i32 %48, %49
  %51 = load i32, ptr @NBuffers, align 4
  %52 = load i32, ptr %3, align 4
  %53 = sdiv i32 %51, %52
  %54 = srem i32 %53, 16
  %55 = sub i32 %50, %54
  br label %56

56:                                               ; preds = %47, %46
  %57 = phi i32 [ 16, %46 ], [ %55, %47 ]
  br label %58

58:                                               ; preds = %56, %31
  %59 = phi i32 [ %35, %31 ], [ %57, %56 ]
  ret i32 %59
}