; Function Attrs: mustprogress nofree norecurse nosync nounwind willreturn memory(read, argmem: none, inaccessiblemem: none) uwtable
define dso_local i32 @SimpleLruAutotuneBuffers(i32 noundef %0, i32 noundef %1) local_unnamed_addr #2 {
  %3 = srem i32 %1, 16
  %4 = sub nsw i32 %1, %3
  %5 = load i32, ptr @NBuffers, align 4
  %6 = sdiv i32 %5, %0
  %7 = srem i32 %6, 16
  %8 = sub i32 %6, %7
  %spec.select = tail call i32 @llvm.smax.i32(i32 %8, i32 16)
  %spec.select15 = tail call i32 @llvm.smin.i32(i32 %4, i32 %spec.select)
  ret i32 %spec.select15
}